; Function Attrs: cold nounwind optsize uwtable
define internal noundef i32 @encode_end(ptr noundef %0) #0 {
  %2 = getelementptr inbounds nuw i8, ptr %0, i64 32
  %3 = load ptr, ptr %2, align 8, !tbaa !4
  %4 = getelementptr inbounds nuw i8, ptr %0, i64 496
  tail call void @av_freep(ptr noundef nonnull %4) #11
  %5 = getelementptr inbounds nuw i8, ptr %3, i64 112
  br label %7

6:                                                ; preds = %7
  ret i32 0

7:                                                ; preds = %1, %7
  %indvars.iv = phi i64 [ 0, %1 ], [ %indvars.iv.next, %7 ]
  %8 = getelementptr inbounds nuw [3 x ptr], ptr %5, i64 0, i64 %indvars.iv
  tail call void @av_freep(ptr noundef nonnull %8) #11
  %indvars.iv.next = add nuw nsw i64 %indvars.iv, 1
  %exitcond.not = icmp eq i64 %indvars.iv.next, 3
  br i1 %exitcond.not, label %6, label %7, !llvm.loop !121
}